target datalayout = "e-m:e-p270:32:32-p271:32:32-p272:64:64-i64:64-i128:128-f80:128-n8:16:32:64-S128"
target triple = "x86_64-pc-linux-gnu"

%"class.cvc5::internal::theory::SortInference::UnionFind" = type { %"class.std::map", %"class.std::vector" }
%"class.std::map" = type { %"class.std::_Rb_tree" }
%"class.std::_Rb_tree" = type { %"struct.std::_Rb_tree<int, std::pair<const int, int>, std::_Select1st<std::pair<const int, int>>, std::less<int>>::_Rb_tree_impl" }
%"struct.std::_Rb_tree<int, std::pair<const int, int>, std::_Select1st<std::pair<const int, int>>, std::less<int>>::_Rb_tree_impl" = type { [8 x i8], %"struct.std::_Rb_tree_header" }
%"struct.std::_Rb_tree_header" = type { %"struct.std::_Rb_tree_node_base", i64 }
%"struct.std::_Rb_tree_node_base" = type { i32, ptr, ptr, ptr }
%"class.std::vector" = type { %"struct.std::_Vector_base" }
%"struct.std::_Vector_base" = type { %"struct.std::_Vector_base<std::pair<int, int>, std::allocator<std::pair<int, int>>>::_Vector_impl" }
%"struct.std::_Vector_base<std::pair<int, int>, std::allocator<std::pair<int, int>>>::_Vector_impl" = type { %"struct.std::_Vector_base<std::pair<int, int>, std::allocator<std::pair<int, int>>>::_Vector_impl_data" }
%"struct.std::_Vector_base<std::pair<int, int>, std::allocator<std::pair<int, int>>>::_Vector_impl_data" = type { ptr, ptr, ptr }

; Function Attrs: mustprogress uwtable
define hidden void @_ZN4cvc58internal6theory13SortInference9UnionFind8setEqualEii(ptr noundef nonnull align 8 dereferenceable(72) %0, i32 noundef %1, i32 noundef %2) #4 align 2 {
  %4 = alloca ptr, align 8
  %5 = alloca i32, align 4
  %6 = alloca i32, align 4
  %7 = alloca i32, align 4
  %8 = alloca i32, align 4
  store ptr %0, ptr %4, align 8, !tbaa !3
  store i32 %1, ptr %5, align 4, !tbaa !18
  store i32 %2, ptr %6, align 4, !tbaa !18
  %9 = load ptr, ptr %4, align 8
  %10 = load i32, ptr %5, align 4, !tbaa !18
  %11 = load i32, ptr %6, align 4, !tbaa !18
  %12 = icmp ne i32 %10, %11
  br i1 %12, label %13, label %30

13:                                               ; preds = %3
  call void @llvm.lifetime.start.p0(i64 4, ptr %7) #3
  %14 = load i32, ptr %5, align 4, !tbaa !18
  %15 = call noundef i32 @_ZN4cvc58internal6theory13SortInference9UnionFind17getRepresentativeEi(ptr noundef nonnull align 8 dereferenceable(72) %9, i32 noundef %14)
  store i32 %15, ptr %7, align 4, !tbaa !18
  call void @llvm.lifetime.start.p0(i64 4, ptr %8) #3
  %16 = load i32, ptr %6, align 4, !tbaa !18
  %17 = call noundef i32 @_ZN4cvc58internal6theory13SortInference9UnionFind17getRepresentativeEi(ptr noundef nonnull align 8 dereferenceable(72) %9, i32 noundef %16)
  store i32 %17, ptr %8, align 4, !tbaa !18
  %18 = load i32, ptr %7, align 4, !tbaa !18
  %19 = load i32, ptr %8, align 4, !tbaa !18
  %20 = icmp sgt i32 %18, %19
  br i1 %20, label %21, label %25

21:                                               ; preds = %13
  %22 = load i32, ptr %8, align 4, !tbaa !18
  %23 = getelementptr inbounds nuw %"class.cvc5::internal::theory::SortInference::UnionFind", ptr %9, i32 0, i32 0
  %24 = call noundef nonnull align 4 dereferenceable(4) ptr @_ZNSt3mapIiiSt4lessIiESaISt4pairIKiiEEEixERS3_(ptr noundef nonnull align 8 dereferenceable(48) %23, ptr noundef nonnull align 4 dereferenceable(4) %7)
  store i32 %22, ptr %24, align 4, !tbaa !18
  br label %29

25:                                               ; preds = %13
  %26 = load i32, ptr %7, align 4, !tbaa !18
  %27 = getelementptr inbounds nuw %"class.cvc5::internal::theory::SortInference::UnionFind", ptr %9, i32 0, i32 0
  %28 = call noundef nonnull align 4 dereferenceable(4) ptr @_ZNSt3mapIiiSt4lessIiESaISt4pairIKiiEEEixERS3_(ptr noundef nonnull align 8 dereferenceable(48) %27, ptr noundef nonnull align 4 dereferenceable(4) %8)
  store i32 %26, ptr %28, align 4, !tbaa !18
  br label %29

29:                                               ; preds = %25, %21
  call void @llvm.lifetime.end.p0(i64 4, ptr %8) #3
  call void @llvm.lifetime.end.p0(i64 4, ptr %7) #3
  br label %30

30:                                               ; preds = %29, %3
  ret void
}