; Function Attrs: mustprogress uwtable
define hidden void @_ZN4cvc58internal6theory13SortInference9UnionFind8setEqualEii(ptr noundef nonnull align 8 dereferenceable(72) %0, i32 noundef %1, i32 noundef %2) local_unnamed_addr #6 align 2 {
  %4 = alloca i32, align 4
  %5 = alloca i32, align 4
  %.not = icmp eq i32 %1, %2
  br i1 %.not, label %11, label %6

6:                                                ; preds = %3
  call void @llvm.lifetime.start.p0(i64 4, ptr nonnull %4) #27
  %7 = tail call noundef i32 @_ZN4cvc58internal6theory13SortInference9UnionFind17getRepresentativeEi(ptr noundef nonnull align 8 dereferenceable(72) %0, i32 noundef %1)
  store i32 %7, ptr %4, align 4, !tbaa !23
  call void @llvm.lifetime.start.p0(i64 4, ptr nonnull %5) #27
  %8 = tail call noundef i32 @_ZN4cvc58internal6theory13SortInference9UnionFind17getRepresentativeEi(ptr noundef nonnull align 8 dereferenceable(72) %0, i32 noundef %2)
  store i32 %8, ptr %5, align 4, !tbaa !23
  %9 = icmp sgt i32 %7, %8
  %. = select i1 %9, ptr %4, ptr %5
  %.9 = tail call i32 @llvm.smin.i32(i32 %7, i32 %8)
  %10 = call noundef nonnull align 4 dereferenceable(4) ptr @_ZNSt3mapIiiSt4lessIiESaISt4pairIKiiEEEixERS3_(ptr noundef nonnull align 8 dereferenceable(48) %0, ptr noundef nonnull align 4 dereferenceable(4) %.)
  store i32 %.9, ptr %10, align 4, !tbaa !23
  call void @llvm.lifetime.end.p0(i64 4, ptr nonnull %5) #27
  call void @llvm.lifetime.end.p0(i64 4, ptr nonnull %4) #27
  br label %11

11:                                               ; preds = %6, %3
  ret void
}